target datalayout = "e-m:e-p270:32:32-p271:32:32-p272:64:64-i64:64-i128:128-f80:128-n8:16:32:64-S128"
target triple = "x86_64-unknown-linux-gnu"

%struct.MachineState = type { %struct.Object, ptr, ptr, ptr, i32, ptr, i8, i8, i8, i8, ptr, i8, i8, i8, ptr, ptr, ptr, ptr, ptr, i64, i64, i64, %struct.BootConfiguration, ptr, ptr, ptr, ptr, ptr, ptr, %struct.CpuTopology, ptr, ptr }
%struct.Object = type { ptr, ptr, ptr, i32, ptr }
%struct.BootConfiguration = type { ptr, ptr, i8, i8, ptr, i8, i64, i8, i64, i8, i8 }
%struct.CpuTopology = type { i32, i32, i32, i32, i32, i32, i32, i32, i32 }

@current_machine = external global ptr, align 8
@.str.23 = private unnamed_addr constant [27 x i8] c"dtb dumped to %s. Exiting.\00", align 1
@.str.24 = private unnamed_addr constant [29 x i8] c"%s: Failed dumping dtb to %s\00", align 1
@__func__.qemu_fdt_dumpdtb = private unnamed_addr constant [17 x i8] c"qemu_fdt_dumpdtb\00", align 1

; Function Attrs: nounwind sspstrong uwtable
define dso_local void @qemu_fdt_dumpdtb(ptr noundef %fdt, i32 noundef %size) #0 {
entry:
  %fdt.addr = alloca ptr, align 8
  %size.addr = alloca i32, align 4
  %dumpdtb = alloca ptr, align 8
  store ptr %fdt, ptr %fdt.addr, align 8
  store i32 %size, ptr %size.addr, align 4
  %0 = load ptr, ptr @current_machine, align 8
  %dumpdtb1 = getelementptr inbounds %struct.MachineState, ptr %0, i32 0, i32 3
  %1 = load ptr, ptr %dumpdtb1, align 8
  store ptr %1, ptr %dumpdtb, align 8
  %2 = load ptr, ptr %dumpdtb, align 8
  %tobool = icmp ne ptr %2, null
  br i1 %tobool, label %if.then, label %if.end4

if.then:                                          ; preds = %entry
  %3 = load ptr, ptr %dumpdtb, align 8
  %4 = load ptr, ptr %fdt.addr, align 8
  %5 = load i32, ptr %size.addr, align 4
  %conv = sext i32 %5 to i64
  %call = call i32 @g_file_set_contents(ptr noundef %3, ptr noundef %4, i64 noundef %conv, ptr noundef null)
  %tobool2 = icmp ne i32 %call, 0
  br i1 %tobool2, label %if.then3, label %if.end

if.then3:                                         ; preds = %if.then
  %6 = load ptr, ptr %dumpdtb, align 8
  call void (ptr, ...) @info_report(ptr noundef @.str.23, ptr noundef %6)
  call void @exit(i32 noundef 0) #10
  unreachable

if.end:                                           ; preds = %if.then
  %7 = load ptr, ptr %dumpdtb, align 8
  call void (ptr, ...) @error_report(ptr noundef @.str.24, ptr noundef @__func__.qemu_fdt_dumpdtb, ptr noundef %7)
  call void @exit(i32 noundef 1) #10
  unreachable

if.end4:                                          ; preds = %entry
  ret void
}