; Function Attrs: nounwind sspstrong uwtable
define dso_local void @qemu_fdt_dumpdtb(ptr noundef %fdt, i32 noundef %size) local_unnamed_addr #0 {
entry:
  %0 = load ptr, ptr @current_machine, align 8
  %dumpdtb1 = getelementptr inbounds nuw i8, ptr %0, i64 56
  %1 = load ptr, ptr %dumpdtb1, align 8
  %tobool.not = icmp eq ptr %1, null
  br i1 %tobool.not, label %if.end4, label %if.then

if.then:                                          ; preds = %entry
  %conv = sext i32 %size to i64
  %call = tail call i32 @g_file_set_contents(ptr noundef nonnull %1, ptr noundef %fdt, i64 noundef %conv, ptr noundef null) #12
  %tobool2.not = icmp eq i32 %call, 0
  br i1 %tobool2.not, label %if.end, label %if.then3

if.then3:                                         ; preds = %if.then
  tail call void (ptr, ...) @info_report(ptr noundef nonnull @.str.23, ptr noundef nonnull %1) #12
  tail call void @exit(i32 noundef 0) #16
  unreachable

if.end:                                           ; preds = %if.then
  tail call void (ptr, ...) @error_report(ptr noundef nonnull @.str.24, ptr noundef nonnull @__func__.qemu_fdt_dumpdtb, ptr noundef nonnull %1) #12
  tail call void @exit(i32 noundef 1) #13
  unreachable

if.end4:                                          ; preds = %entry
  ret void
}